target datalayout = "e-m:e-p270:32:32-p271:32:32-p272:64:64-i64:64-i128:128-f80:128-n8:16:32:64-S128"
target triple = "x86_64-pc-linux-gnu"

%class.Effect = type <{ %"class.std::vector.3", %"class.std::vector.3", %"class.std::vector.3", i8, i8, [6 x i8] }>
%"class.std::vector.3" = type { %"struct.std::_Vector_base.4" }
%"struct.std::_Vector_base.4" = type { %"struct.std::_Vector_base<const Variable *, std::allocator<const Variable *>>::_Vector_impl" }
%"struct.std::_Vector_base<const Variable *, std::allocator<const Variable *>>::_Vector_impl" = type { %"struct.std::_Vector_base<const Variable *, std::allocator<const Variable *>>::_Vector_impl_data" }
%"struct.std::_Vector_base<const Variable *, std::allocator<const Variable *>>::_Vector_impl_data" = type { ptr, ptr, ptr }
%class.FunctionInvocation = type { ptr, i32, %"class.std::vector.61", i8, i8, ptr }
%"class.std::vector.61" = type { %"struct.std::_Vector_base.62" }
%"struct.std::_Vector_base.62" = type { %"struct.std::_Vector_base<const Expression *, std::allocator<const Expression *>>::_Vector_impl" }
%"struct.std::_Vector_base<const Expression *, std::allocator<const Expression *>>::_Vector_impl" = type { %"struct.std::_Vector_base<const Expression *, std::allocator<const Expression *>>::_Vector_impl_data" }
%"struct.std::_Vector_base<const Expression *, std::allocator<const Expression *>>::_Vector_impl_data" = type { ptr, ptr, ptr }
%class.ExpressionFuncall = type { %class.Expression, ptr }
%class.Expression = type { ptr, i32, i32, ptr }
%class.FunctionInvocationUser = type <{ %class.FunctionInvocation, ptr, i8, [7 x i8] }>
%class.Function = type { %"class.std::__cxx11::basic_string", %"class.std::vector.76", ptr, %class.Effect, %"class.std::vector.81", %"class.std::vector.81", ptr, ptr, ptr, %"class.std::vector.3", %"class.std::vector.3", i8, i8, i8, i8, i32, %class.Effect, i8, %"class.std::__cxx11::basic_string", i32, %"class.std::vector.3" }
%"class.std::vector.76" = type { %"struct.std::_Vector_base.77" }
%"struct.std::_Vector_base.77" = type { %"struct.std::_Vector_base<Variable *, std::allocator<Variable *>>::_Vector_impl" }
%"struct.std::_Vector_base<Variable *, std::allocator<Variable *>>::_Vector_impl" = type { %"struct.std::_Vector_base<Variable *, std::allocator<Variable *>>::_Vector_impl_data" }
%"struct.std::_Vector_base<Variable *, std::allocator<Variable *>>::_Vector_impl_data" = type { ptr, ptr, ptr }
%"class.std::vector.81" = type { %"struct.std::_Vector_base.82" }
%"struct.std::_Vector_base.82" = type { %"struct.std::_Vector_base<Block *, std::allocator<Block *>>::_Vector_impl" }
%"struct.std::_Vector_base<Block *, std::allocator<Block *>>::_Vector_impl" = type { %"struct.std::_Vector_base<Block *, std::allocator<Block *>>::_Vector_impl_data" }
%"struct.std::_Vector_base<Block *, std::allocator<Block *>>::_Vector_impl_data" = type { ptr, ptr, ptr }
%"class.std::__cxx11::basic_string" = type { %"struct.std::__cxx11::basic_string<char>::_Alloc_hider", i64, %union.anon }
%"struct.std::__cxx11::basic_string<char>::_Alloc_hider" = type { ptr }
%union.anon = type { i64, [8 x i8] }

@_ZTI18FunctionInvocation = external constant ptr
@_ZTI22FunctionInvocationUser = external constant ptr

; Function Attrs: mustprogress nounwind uwtable
define linkonce_odr dso_local noundef nonnull align 8 dereferenceable(24) ptr @_ZNK8Function19get_referenced_ptrsEv(ptr noundef nonnull align 8 dereferenceable(424) %0) #5 comdat align 2 {
  %2 = alloca ptr, align 8
  store ptr %0, ptr %2, align 8
  %3 = load ptr, ptr %2, align 8
  %4 = getelementptr inbounds %class.Function, ptr %3, i32 0, i32 20
  ret ptr %4
}

; Function Attrs: mustprogress nounwind uwtable
define linkonce_odr dso_local noundef ptr @_ZNK22FunctionInvocationUser8get_funcEv(ptr noundef nonnull align 8 dereferenceable(65) %0) #5 comdat align 2 {
  %2 = alloca ptr, align 8
  store ptr %0, ptr %2, align 8
  %3 = load ptr, ptr %2, align 8
  %4 = getelementptr inbounds %class.FunctionInvocationUser, ptr %3, i32 0, i32 1
  %5 = load ptr, ptr %4, align 8
  ret ptr %5
}

; Function Attrs: mustprogress nounwind uwtable
define linkonce_odr dso_local noundef nonnull align 8 dereferenceable(8) ptr @_ZNKSt6vectorIPK10ExpressionSaIS2_EEixEm(ptr noundef nonnull align 8 dereferenceable(24) %0, i64 noundef %1) #5 comdat align 2 {
  %3 = alloca ptr, align 8
  %4 = alloca i64, align 8
  store ptr %0, ptr %3, align 8
  store i64 %1, ptr %4, align 8
  %5 = load ptr, ptr %3, align 8
  %6 = getelementptr inbounds %"struct.std::_Vector_base.62", ptr %5, i32 0, i32 0
  %7 = getelementptr inbounds %"struct.std::_Vector_base<const Expression *, std::allocator<const Expression *>>::_Vector_impl_data", ptr %6, i32 0, i32 0
  %8 = load ptr, ptr %7, align 8
  %9 = load i64, ptr %4, align 8
  %10 = getelementptr inbounds ptr, ptr %8, i64 %9
  ret ptr %10
}

; Function Attrs: mustprogress nounwind uwtable
define linkonce_odr dso_local noundef i64 @_ZNKSt6vectorIPK10ExpressionSaIS2_EE4sizeEv(ptr noundef nonnull align 8 dereferenceable(24) %0) #5 comdat align 2 {
  %2 = alloca ptr, align 8
  store ptr %0, ptr %2, align 8
  %3 = load ptr, ptr %2, align 8
  %4 = getelementptr inbounds %"struct.std::_Vector_base.62", ptr %3, i32 0, i32 0
  %5 = getelementptr inbounds %"struct.std::_Vector_base<const Expression *, std::allocator<const Expression *>>::_Vector_impl_data", ptr %4, i32 0, i32 1
  %6 = load ptr, ptr %5, align 8
  %7 = getelementptr inbounds %"struct.std::_Vector_base.62", ptr %3, i32 0, i32 0
  %8 = getelementptr inbounds %"struct.std::_Vector_base<const Expression *, std::allocator<const Expression *>>::_Vector_impl_data", ptr %7, i32 0, i32 0
  %9 = load ptr, ptr %8, align 8
  %10 = ptrtoint ptr %6 to i64
  %11 = ptrtoint ptr %9 to i64
  %12 = sub i64 %10, %11
  %13 = sdiv exact i64 %12, 8
  ret i64 %13
}

; Function Attrs: mustprogress uwtable
define dso_local void @_ZNK17ExpressionFuncall19get_referenced_ptrsERSt6vectorIPK8VariableSaIS3_EE(ptr noundef nonnull align 8 dereferenceable(32) %0, ptr noundef nonnull align 8 dereferenceable(24) %1) unnamed_addr #4 align 2 {
  %3 = alloca ptr, align 8
  %4 = alloca ptr, align 8
  %5 = alloca i64, align 8
  %6 = alloca ptr, align 8
  %7 = alloca ptr, align 8
  store ptr %0, ptr %3, align 8
  store ptr %1, ptr %4, align 8
  %8 = load ptr, ptr %3, align 8
  store i64 0, ptr %5, align 8
  br label %9

9:                                                ; preds = %28, %2
  %10 = load i64, ptr %5, align 8
  %11 = getelementptr inbounds %class.ExpressionFuncall, ptr %8, i32 0, i32 1
  %12 = load ptr, ptr %11, align 8
  %13 = getelementptr inbounds %class.FunctionInvocation, ptr %12, i32 0, i32 2
  %14 = call noundef i64 @_ZNKSt6vectorIPK10ExpressionSaIS2_EE4sizeEv(ptr noundef nonnull align 8 dereferenceable(24) %13) #3
  %15 = icmp ult i64 %10, %14
  br i1 %15, label %16, label %31

16:                                               ; preds = %9
  %17 = getelementptr inbounds %class.ExpressionFuncall, ptr %8, i32 0, i32 1
  %18 = load ptr, ptr %17, align 8
  %19 = getelementptr inbounds %class.FunctionInvocation, ptr %18, i32 0, i32 2
  %20 = load i64, ptr %5, align 8
  %21 = call noundef nonnull align 8 dereferenceable(8) ptr @_ZNKSt6vectorIPK10ExpressionSaIS2_EEixEm(ptr noundef nonnull align 8 dereferenceable(24) %19, i64 noundef %20) #3
  %22 = load ptr, ptr %21, align 8
  store ptr %22, ptr %6, align 8
  %23 = load ptr, ptr %6, align 8
  %24 = load ptr, ptr %4, align 8
  %25 = load ptr, ptr %23, align 8
  %26 = getelementptr inbounds ptr, ptr %25, i64 10
  %27 = load ptr, ptr %26, align 8
  call void %27(ptr noundef nonnull align 8 dereferenceable(24) %23, ptr noundef nonnull align 8 dereferenceable(24) %24)
  br label %28

28:                                               ; preds = %16
  %29 = load i64, ptr %5, align 8
  %30 = add i64 %29, 1
  store i64 %30, ptr %5, align 8
  br label %9, !llvm.loop !8

31:                                               ; preds = %9
  %32 = getelementptr inbounds %class.ExpressionFuncall, ptr %8, i32 0, i32 1
  %33 = load ptr, ptr %32, align 8
  %34 = getelementptr inbounds %class.FunctionInvocation, ptr %33, i32 0, i32 1
  %35 = load i32, ptr %34, align 8
  %36 = icmp eq i32 %35, 2
  br i1 %36, label %37, label %51

37:                                               ; preds = %31
  %38 = getelementptr inbounds %class.ExpressionFuncall, ptr %8, i32 0, i32 1
  %39 = load ptr, ptr %38, align 8
  %40 = icmp eq ptr %39, null
  br i1 %40, label %43, label %41

41:                                               ; preds = %37
  %42 = call ptr @__dynamic_cast(ptr %39, ptr @_ZTI18FunctionInvocation, ptr @_ZTI22FunctionInvocationUser, i64 0) #3
  br label %44

43:                                               ; preds = %37
  br label %44

44:                                               ; preds = %43, %41
  %45 = phi ptr [ %42, %41 ], [ null, %43 ]
  store ptr %45, ptr %7, align 8
  %46 = load ptr, ptr %4, align 8
  %47 = load ptr, ptr %7, align 8
  %48 = call noundef ptr @_ZNK22FunctionInvocationUser8get_funcEv(ptr noundef nonnull align 8 dereferenceable(65) %47)
  %49 = call noundef nonnull align 8 dereferenceable(24) ptr @_ZNK8Function19get_referenced_ptrsEv(ptr noundef nonnull align 8 dereferenceable(424) %48)
  %50 = call noundef zeroext i1 @_Z20add_variables_to_setRSt6vectorIPK8VariableSaIS2_EERKS4_(ptr noundef nonnull align 8 dereferenceable(24) %46, ptr noundef nonnull align 8 dereferenceable(24) %49)
  br label %51

51:                                               ; preds = %44, %31
  ret void
}