; Function Attrs: mustprogress uwtable
define dso_local void @_ZNK17ExpressionFuncall19get_referenced_ptrsERSt6vectorIPK8VariableSaIS3_EE(ptr nocapture noundef nonnull readonly align 8 dereferenceable(32) %0, ptr noundef nonnull align 8 dereferenceable(24) %1) unnamed_addr #3 align 2 {
  %3 = getelementptr inbounds i8, ptr %0, i64 24
  %4 = load ptr, ptr %3, align 8
  %5 = getelementptr inbounds i8, ptr %4, i64 16
  %6 = getelementptr inbounds i8, ptr %4, i64 24
  %7 = load ptr, ptr %6, align 8
  %8 = load ptr, ptr %5, align 8
  %.not = icmp eq ptr %7, %8
  br i1 %.not, label %._crit_edge, label %.lr.ph

.lr.ph:                                           ; preds = %2, %.lr.ph
  %9 = phi ptr [ %20, %.lr.ph ], [ %8, %2 ]
  %.08 = phi i64 [ %15, %.lr.ph ], [ 0, %2 ]
  %10 = getelementptr inbounds ptr, ptr %9, i64 %.08
  %11 = load ptr, ptr %10, align 8
  %12 = load ptr, ptr %11, align 8
  %13 = getelementptr inbounds i8, ptr %12, i64 80
  %14 = load ptr, ptr %13, align 8
  tail call void %14(ptr noundef nonnull align 8 dereferenceable(24) %11, ptr noundef nonnull align 8 dereferenceable(24) %1)
  %15 = add nuw i64 %.08, 1
  %16 = load ptr, ptr %3, align 8
  %17 = getelementptr inbounds i8, ptr %16, i64 16
  %18 = getelementptr inbounds i8, ptr %16, i64 24
  %19 = load ptr, ptr %18, align 8
  %20 = load ptr, ptr %17, align 8
  %21 = ptrtoint ptr %19 to i64
  %22 = ptrtoint ptr %20 to i64
  %23 = sub i64 %21, %22
  %24 = ashr exact i64 %23, 3
  %25 = icmp ult i64 %15, %24
  br i1 %25, label %.lr.ph, label %._crit_edge, !llvm.loop !11

._crit_edge:                                      ; preds = %.lr.ph, %2
  %.lcssa = phi ptr [ %4, %2 ], [ %16, %.lr.ph ]
  %26 = getelementptr inbounds i8, ptr %.lcssa, i64 8
  %27 = load i32, ptr %26, align 8
  %28 = icmp eq i32 %27, 2
  br i1 %28, label %29, label %35

29:                                               ; preds = %._crit_edge
  %30 = tail call ptr @__dynamic_cast(ptr nonnull %.lcssa, ptr nonnull @_ZTI18FunctionInvocation, ptr nonnull @_ZTI22FunctionInvocationUser, i64 0) #15
  %31 = getelementptr inbounds i8, ptr %30, i64 56
  %32 = load ptr, ptr %31, align 8
  %33 = getelementptr inbounds i8, ptr %32, i64 400
  %34 = tail call noundef zeroext i1 @_Z20add_variables_to_setRSt6vectorIPK8VariableSaIS2_EERKS4_(ptr noundef nonnull align 8 dereferenceable(24) %1, ptr noundef nonnull align 8 dereferenceable(24) %33)
  br label %35

35:                                               ; preds = %29, %._crit_edge
  ret void
}